target datalayout = "e-m:e-p270:32:32-p271:32:32-p272:64:64-i64:64-i128:128-f80:128-n8:16:32:64-S128"
target triple = "x86_64-pc-linux-gnu"

; Function Attrs: nounwind null_pointer_is_valid sspstrong uwtable
define hidden i32 @nvme_is_io_queue_opcode(i8 noundef zeroext %0) #5 {
  %2 = alloca i8, align 1
  store i8 %0, ptr %2, align 1
  %3 = load i8, ptr %2, align 1
  %4 = zext i8 %3 to i32
  %5 = icmp eq i32 %4, 0
  br i1 %5, label %46, label %6

6:                                                ; preds = %1
  %7 = load i8, ptr %2, align 1
  %8 = zext i8 %7 to i32
  %9 = icmp eq i32 %8, 1
  br i1 %9, label %46, label %10

10:                                               ; preds = %6
  %11 = load i8, ptr %2, align 1
  %12 = zext i8 %11 to i32
  %13 = icmp eq i32 %12, 2
  br i1 %13, label %46, label %14

14:                                               ; preds = %10
  %15 = load i8, ptr %2, align 1
  %16 = zext i8 %15 to i32
  %17 = icmp eq i32 %16, 4
  br i1 %17, label %46, label %18

18:                                               ; preds = %14
  %19 = load i8, ptr %2, align 1
  %20 = zext i8 %19 to i32
  %21 = icmp eq i32 %20, 5
  br i1 %21, label %46, label %22

22:                                               ; preds = %18
  %23 = load i8, ptr %2, align 1
  %24 = zext i8 %23 to i32
  %25 = icmp eq i32 %24, 8
  br i1 %25, label %46, label %26

26:                                               ; preds = %22
  %27 = load i8, ptr %2, align 1
  %28 = zext i8 %27 to i32
  %29 = icmp eq i32 %28, 9
  br i1 %29, label %46, label %30

30:                                               ; preds = %26
  %31 = load i8, ptr %2, align 1
  %32 = zext i8 %31 to i32
  %33 = icmp eq i32 %32, 13
  br i1 %33, label %46, label %34

34:                                               ; preds = %30
  %35 = load i8, ptr %2, align 1
  %36 = zext i8 %35 to i32
  %37 = icmp eq i32 %36, 14
  br i1 %37, label %46, label %38

38:                                               ; preds = %34
  %39 = load i8, ptr %2, align 1
  %40 = zext i8 %39 to i32
  %41 = icmp eq i32 %40, 17
  br i1 %41, label %46, label %42

42:                                               ; preds = %38
  %43 = load i8, ptr %2, align 1
  %44 = zext i8 %43 to i32
  %45 = icmp eq i32 %44, 21
  br label %46

46:                                               ; preds = %42, %38, %34, %30, %26, %22, %18, %14, %10, %6, %1
  %47 = phi i1 [ true, %38 ], [ true, %34 ], [ true, %30 ], [ true, %26 ], [ true, %22 ], [ true, %18 ], [ true, %14 ], [ true, %10 ], [ true, %6 ], [ true, %1 ], [ %45, %42 ]
  %48 = zext i1 %47 to i32
  ret i32 %48
}