; Function Attrs: mustprogress nofree norecurse nosync nounwind null_pointer_is_valid sspstrong willreturn memory(none) uwtable
define hidden range(i32 0, 2) i32 @nvme_is_io_queue_opcode(i8 noundef zeroext %0) local_unnamed_addr #5 {
  %2 = icmp ult i8 %0, 18
  br i1 %2, label %switch.hole_check, label %3

3:                                                ; preds = %switch.hole_check, %1
  %4 = icmp eq i8 %0, 21
  %5 = zext i1 %4 to i32
  br label %switch.lookup

switch.hole_check:                                ; preds = %1
  %switch.maskindex = zext nneg i8 %0 to i32
  %switch.shifted = lshr i32 156471, %switch.maskindex
  %switch.lobit = trunc i32 %switch.shifted to i1
  br i1 %switch.lobit, label %switch.lookup, label %3

switch.lookup:                                    ; preds = %switch.hole_check, %3
  %6 = phi i32 [ %5, %3 ], [ 1, %switch.hole_check ]
  ret i32 %6
}